target datalayout = "e-m:e-p270:32:32-p271:32:32-p272:64:64-i64:64-i128:128-f80:128-n8:16:32:64-S128"
target triple = "x86_64-pc-linux-gnu"

%struct.GetBitContext = type { ptr, ptr, i32, i32, i32 }
%struct.HuffContext = type { i32, [256 x %struct.HuffEntry] }
%struct.HuffEntry = type { i8, i8 }

@.str.14 = private unnamed_addr constant [40 x i8] c"Maximum tree recursion level exceeded.\0A\00", align 1
@.str.15 = private unnamed_addr constant [21 x i8] c"Tree size exceeded!\0A\00", align 1

; Function Attrs: inlinehint nounwind willreturn memory(none) uwtable
define internal i32 @zero_extend(i32 noundef %0, i32 noundef %1) #7 {
  %3 = alloca i32, align 4
  %4 = alloca i32, align 4
  store i32 %0, ptr %3, align 4, !tbaa !37
  store i32 %1, ptr %4, align 4, !tbaa !37
  %5 = load i32, ptr %3, align 4, !tbaa !37
  %6 = load i32, ptr %4, align 4, !tbaa !37
  %7 = zext i32 %6 to i64
  %8 = sub i64 32, %7
  %9 = trunc i64 %8 to i32
  %10 = shl i32 %5, %9
  %11 = load i32, ptr %4, align 4, !tbaa !37
  %12 = zext i32 %11 to i64
  %13 = sub i64 32, %12
  %14 = trunc i64 %13 to i32
  %15 = lshr i32 %10, %14
  ret i32 %15
}

; Function Attrs: inlinehint nounwind uwtable
define internal i32 @get_bits_count(ptr noundef %0) #4 {
  %2 = alloca ptr, align 8
  store ptr %0, ptr %2, align 8, !tbaa !96
  %3 = load ptr, ptr %2, align 8, !tbaa !96
  %4 = getelementptr inbounds nuw %struct.GetBitContext, ptr %3, i32 0, i32 2
  %5 = load i32, ptr %4, align 8, !tbaa !98
  ret i32 %5
}

; Function Attrs: inlinehint nounwind uwtable
define internal i32 @get_bits(ptr noundef %0, i32 noundef %1) #4 {
  %3 = alloca ptr, align 8
  %4 = alloca i32, align 4
  %5 = alloca i32, align 4
  %6 = alloca i32, align 4
  %7 = alloca i32, align 4
  store ptr %0, ptr %3, align 8, !tbaa !96
  store i32 %1, ptr %4, align 4, !tbaa !37
  call void @llvm.lifetime.start.p0(i64 4, ptr %5) #11
  call void @llvm.lifetime.start.p0(i64 4, ptr %6) #11
  %8 = load ptr, ptr %3, align 8, !tbaa !96
  %9 = getelementptr inbounds nuw %struct.GetBitContext, ptr %8, i32 0, i32 2
  %10 = load i32, ptr %9, align 8, !tbaa !98
  store i32 %10, ptr %6, align 4, !tbaa !37
  call void @llvm.lifetime.start.p0(i64 4, ptr %7) #11
  %11 = load ptr, ptr %3, align 8, !tbaa !96
  %12 = getelementptr inbounds nuw %struct.GetBitContext, ptr %11, i32 0, i32 0
  %13 = load ptr, ptr %12, align 8, !tbaa !100
  %14 = load i32, ptr %6, align 4, !tbaa !37
  %15 = lshr i32 %14, 3
  %16 = zext i32 %15 to i64
  %17 = getelementptr inbounds nuw i8, ptr %13, i64 %16
  %18 = load i32, ptr %17, align 1, !tbaa !60
  %19 = load i32, ptr %6, align 4, !tbaa !37
  %20 = and i32 %19, 7
  %21 = lshr i32 %18, %20
  store i32 %21, ptr %7, align 4, !tbaa !37
  %22 = load i32, ptr %7, align 4, !tbaa !37
  %23 = load i32, ptr %4, align 4, !tbaa !37
  %24 = call i32 @zero_extend(i32 noundef %22, i32 noundef %23) #12
  store i32 %24, ptr %5, align 4, !tbaa !37
  %25 = load i32, ptr %4, align 4, !tbaa !37
  %26 = load i32, ptr %6, align 4, !tbaa !37
  %27 = add i32 %26, %25
  store i32 %27, ptr %6, align 4, !tbaa !37
  %28 = load i32, ptr %6, align 4, !tbaa !37
  %29 = load ptr, ptr %3, align 8, !tbaa !96
  %30 = getelementptr inbounds nuw %struct.GetBitContext, ptr %29, i32 0, i32 2
  store i32 %28, ptr %30, align 8, !tbaa !98
  %31 = load i32, ptr %5, align 4, !tbaa !37
  call void @llvm.lifetime.end.p0(i64 4, ptr %7) #11
  call void @llvm.lifetime.end.p0(i64 4, ptr %6) #11
  call void @llvm.lifetime.end.p0(i64 4, ptr %5) #11
  ret i32 %31
}

; Function Attrs: inlinehint nounwind uwtable
define internal i32 @get_bits_left(ptr noundef %0) #4 {
  %2 = alloca ptr, align 8
  store ptr %0, ptr %2, align 8, !tbaa !96
  %3 = load ptr, ptr %2, align 8, !tbaa !96
  %4 = getelementptr inbounds nuw %struct.GetBitContext, ptr %3, i32 0, i32 3
  %5 = load i32, ptr %4, align 4, !tbaa !113
  %6 = load ptr, ptr %2, align 8, !tbaa !96
  %7 = call i32 @get_bits_count(ptr noundef %6)
  %8 = sub nsw i32 %5, %7
  ret i32 %8
}

; Function Attrs: inlinehint nounwind uwtable
define internal i32 @get_bits1(ptr noundef %0) #4 {
  %2 = alloca ptr, align 8
  %3 = alloca i32, align 4
  %4 = alloca i8, align 1
  store ptr %0, ptr %2, align 8, !tbaa !96
  call void @llvm.lifetime.start.p0(i64 4, ptr %3) #11
  %5 = load ptr, ptr %2, align 8, !tbaa !96
  %6 = getelementptr inbounds nuw %struct.GetBitContext, ptr %5, i32 0, i32 2
  %7 = load i32, ptr %6, align 8, !tbaa !98
  store i32 %7, ptr %3, align 4, !tbaa !37
  call void @llvm.lifetime.start.p0(i64 1, ptr %4) #11
  %8 = load ptr, ptr %2, align 8, !tbaa !96
  %9 = getelementptr inbounds nuw %struct.GetBitContext, ptr %8, i32 0, i32 0
  %10 = load ptr, ptr %9, align 8, !tbaa !100
  %11 = load i32, ptr %3, align 4, !tbaa !37
  %12 = lshr i32 %11, 3
  %13 = zext i32 %12 to i64
  %14 = getelementptr inbounds nuw i8, ptr %10, i64 %13
  %15 = load i8, ptr %14, align 1, !tbaa !60
  store i8 %15, ptr %4, align 1, !tbaa !60
  %16 = load i32, ptr %3, align 4, !tbaa !37
  %17 = and i32 %16, 7
  %18 = load i8, ptr %4, align 1, !tbaa !60
  %19 = zext i8 %18 to i32
  %20 = ashr i32 %19, %17
  %21 = trunc i32 %20 to i8
  store i8 %21, ptr %4, align 1, !tbaa !60
  %22 = load i8, ptr %4, align 1, !tbaa !60
  %23 = zext i8 %22 to i32
  %24 = and i32 %23, 1
  %25 = trunc i32 %24 to i8
  store i8 %25, ptr %4, align 1, !tbaa !60
  %26 = load i32, ptr %3, align 4, !tbaa !37
  %27 = add i32 %26, 1
  store i32 %27, ptr %3, align 4, !tbaa !37
  %28 = load i32, ptr %3, align 4, !tbaa !37
  %29 = load ptr, ptr %2, align 8, !tbaa !96
  %30 = getelementptr inbounds nuw %struct.GetBitContext, ptr %29, i32 0, i32 2
  store i32 %28, ptr %30, align 8, !tbaa !98
  %31 = load i8, ptr %4, align 1, !tbaa !60
  %32 = zext i8 %31 to i32
  call void @llvm.lifetime.end.p0(i64 1, ptr %4) #11
  call void @llvm.lifetime.end.p0(i64 4, ptr %3) #11
  ret i32 %32
}

; Function Attrs: nounwind uwtable
define internal i32 @smacker_decode_tree(ptr noundef %0, ptr noundef %1, ptr noundef %2, i32 noundef %3) #1 {
  %5 = alloca i32, align 4
  %6 = alloca ptr, align 8
  %7 = alloca ptr, align 8
  %8 = alloca ptr, align 8
  %9 = alloca i32, align 4
  %10 = alloca %struct.HuffEntry, align 1
  %11 = alloca i32, align 4
  %12 = alloca i32, align 4
  store ptr %0, ptr %6, align 8, !tbaa !4
  store ptr %1, ptr %7, align 8, !tbaa !96
  store ptr %2, ptr %8, align 8, !tbaa !116
  store i32 %3, ptr %9, align 4, !tbaa !37
  %13 = load i32, ptr %9, align 4, !tbaa !37
  %14 = icmp sgt i32 %13, 27
  br i1 %14, label %18, label %15

15:                                               ; preds = %4
  %16 = load i32, ptr %9, align 4, !tbaa !37
  %17 = icmp sgt i32 %16, 27
  br i1 %17, label %18, label %20

18:                                               ; preds = %15, %4
  %19 = load ptr, ptr %6, align 8, !tbaa !4
  call void (ptr, i32, ptr, ...) @av_log(ptr noundef %19, i32 noundef 16, ptr noundef @.str.14)
  store i32 -1094995529, ptr %5, align 4
  br label %71

20:                                               ; preds = %15
  %21 = load ptr, ptr %7, align 8, !tbaa !96
  %22 = call i32 @get_bits1(ptr noundef %21)
  %23 = icmp ne i32 %22, 0
  br i1 %23, label %52, label %24

24:                                               ; preds = %20
  %25 = load ptr, ptr %8, align 8, !tbaa !116
  %26 = getelementptr inbounds nuw %struct.HuffContext, ptr %25, i32 0, i32 0
  %27 = load i32, ptr %26, align 4, !tbaa !78
  %28 = icmp sge i32 %27, 256
  br i1 %28, label %29, label %31

29:                                               ; preds = %24
  %30 = load ptr, ptr %6, align 8, !tbaa !4
  call void (ptr, i32, ptr, ...) @av_log(ptr noundef %30, i32 noundef 16, ptr noundef @.str.15)
  store i32 -1094995529, ptr %5, align 4
  br label %71

31:                                               ; preds = %24
  %32 = load ptr, ptr %7, align 8, !tbaa !96
  %33 = call i32 @get_bits_left(ptr noundef %32)
  %34 = icmp slt i32 %33, 8
  br i1 %34, label %35, label %36

35:                                               ; preds = %31
  store i32 -1094995529, ptr %5, align 4
  br label %71

36:                                               ; preds = %31
  %37 = load ptr, ptr %8, align 8, !tbaa !116
  %38 = getelementptr inbounds nuw %struct.HuffContext, ptr %37, i32 0, i32 1
  %39 = load ptr, ptr %8, align 8, !tbaa !116
  %40 = getelementptr inbounds nuw %struct.HuffContext, ptr %39, i32 0, i32 0
  %41 = load i32, ptr %40, align 4, !tbaa !78
  %42 = add nsw i32 %41, 1
  store i32 %42, ptr %40, align 4, !tbaa !78
  %43 = sext i32 %41 to i64
  %44 = getelementptr inbounds [256 x %struct.HuffEntry], ptr %38, i64 0, i64 %43
  %45 = getelementptr inbounds nuw %struct.HuffEntry, ptr %10, i32 0, i32 0
  %46 = load ptr, ptr %7, align 8, !tbaa !96
  %47 = call i32 @get_bits(ptr noundef %46, i32 noundef 8)
  %48 = trunc i32 %47 to i8
  store i8 %48, ptr %45, align 1, !tbaa !80
  %49 = getelementptr inbounds nuw %struct.HuffEntry, ptr %10, i32 0, i32 1
  %50 = load i32, ptr %9, align 4, !tbaa !37
  %51 = trunc i32 %50 to i8
  store i8 %51, ptr %49, align 1, !tbaa !118
  call void @llvm.memcpy.p0.p0.i64(ptr align 2 %44, ptr align 1 %10, i64 2, i1 false), !tbaa.struct !119
  store i32 0, ptr %5, align 4
  br label %71

52:                                               ; preds = %20
  call void @llvm.lifetime.start.p0(i64 4, ptr %11) #11
  %53 = load i32, ptr %9, align 4, !tbaa !37
  %54 = add nsw i32 %53, 1
  store i32 %54, ptr %9, align 4, !tbaa !37
  %55 = load ptr, ptr %6, align 8, !tbaa !4
  %56 = load ptr, ptr %7, align 8, !tbaa !96
  %57 = load ptr, ptr %8, align 8, !tbaa !116
  %58 = load i32, ptr %9, align 4, !tbaa !37
  %59 = call i32 @smacker_decode_tree(ptr noundef %55, ptr noundef %56, ptr noundef %57, i32 noundef %58)
  store i32 %59, ptr %11, align 4, !tbaa !37
  %60 = load i32, ptr %11, align 4, !tbaa !37
  %61 = icmp ne i32 %60, 0
  br i1 %61, label %62, label %64

62:                                               ; preds = %52
  %63 = load i32, ptr %11, align 4, !tbaa !37
  store i32 %63, ptr %5, align 4
  store i32 1, ptr %12, align 4
  br label %70

64:                                               ; preds = %52
  %65 = load ptr, ptr %6, align 8, !tbaa !4
  %66 = load ptr, ptr %7, align 8, !tbaa !96
  %67 = load ptr, ptr %8, align 8, !tbaa !116
  %68 = load i32, ptr %9, align 4, !tbaa !37
  %69 = call i32 @smacker_decode_tree(ptr noundef %65, ptr noundef %66, ptr noundef %67, i32 noundef %68)
  store i32 %69, ptr %5, align 4
  store i32 1, ptr %12, align 4
  br label %70

70:                                               ; preds = %64, %62
  call void @llvm.lifetime.end.p0(i64 4, ptr %11) #11
  br label %71

71:                                               ; preds = %70, %36, %35, %29, %18
  %72 = load i32, ptr %5, align 4
  ret i32 %72
}