; Function Attrs: nounwind uwtable
define internal fastcc range(i32 -1094995529, 1) i32 @smacker_decode_tree(ptr noundef %0, ptr noundef nonnull captures(none) %1, ptr noundef nonnull captures(none) %2, i32 noundef %3) unnamed_addr #1 {
  %5 = getelementptr inbounds nuw i8, ptr %1, i64 16
  %smax = tail call i32 @llvm.smax.i32(i32 %3, i32 28)
  br label %tailrecurse

tailrecurse:                                      ; preds = %41, %4
  %.tr29 = phi i32 [ %3, %4 ], [ %42, %41 ]
  %exitcond = icmp eq i32 %.tr29, %smax
  br i1 %exitcond, label %6, label %7

6:                                                ; preds = %tailrecurse
  tail call void (ptr, i32, ptr, ...) @av_log(ptr noundef %0, i32 noundef 16, ptr noundef nonnull @.str.14) #7
  br label %.loopexit

7:                                                ; preds = %tailrecurse
  %8 = load i32, ptr %5, align 8, !tbaa !41
  %9 = load ptr, ptr %1, align 8, !tbaa !36
  %10 = lshr i32 %8, 3
  %11 = zext nneg i32 %10 to i64
  %12 = getelementptr inbounds nuw i8, ptr %9, i64 %11
  %13 = load i8, ptr %12, align 1, !tbaa !35
  %14 = and i32 %8, 7
  %15 = zext i8 %13 to i32
  %16 = add i32 %8, 1
  store i32 %16, ptr %5, align 8, !tbaa !41
  %17 = shl nuw nsw i32 1, %14
  %18 = and i32 %17, %15
  %.not = icmp eq i32 %18, 0
  br i1 %.not, label %19, label %41

19:                                               ; preds = %7
  %20 = load i32, ptr %2, align 4, !tbaa !75
  %21 = icmp sgt i32 %20, 255
  br i1 %21, label %22, label %23

22:                                               ; preds = %19
  tail call void (ptr, i32, ptr, ...) @av_log(ptr noundef %0, i32 noundef 16, ptr noundef nonnull @.str.15) #7
  br label %.loopexit

23:                                               ; preds = %19
  %24 = getelementptr i8, ptr %1, i64 20
  %.val26 = load i32, ptr %24, align 4, !tbaa !38
  %25 = sub nsw i32 %.val26, %16
  %26 = icmp slt i32 %25, 8
  br i1 %26, label %.loopexit, label %27

27:                                               ; preds = %23
  %28 = getelementptr inbounds nuw i8, ptr %2, i64 4
  %29 = add nsw i32 %20, 1
  store i32 %29, ptr %2, align 4, !tbaa !75
  %30 = sext i32 %20 to i64
  %31 = getelementptr inbounds [256 x %struct.HuffEntry], ptr %28, i64 0, i64 %30
  %32 = lshr i32 %16, 3
  %33 = zext nneg i32 %32 to i64
  %34 = getelementptr inbounds nuw i8, ptr %9, i64 %33
  %35 = load i32, ptr %34, align 1, !tbaa !35
  %36 = and i32 %16, 7
  %37 = lshr i32 %35, %36
  %38 = add i32 %8, 9
  store i32 %38, ptr %5, align 8, !tbaa !41
  %39 = trunc i32 %37 to i8
  %40 = trunc i32 %.tr29 to i8
  store i8 %39, ptr %31, align 2, !tbaa !35
  %.sroa.2.0..sroa_idx = getelementptr inbounds nuw i8, ptr %31, i64 1
  store i8 %40, ptr %.sroa.2.0..sroa_idx, align 1, !tbaa !35
  br label %.loopexit

41:                                               ; preds = %7
  %42 = add i32 %.tr29, 1
  %43 = tail call fastcc i32 @smacker_decode_tree(ptr noundef %0, ptr noundef %1, ptr noundef %2, i32 noundef %42)
  %.not25 = icmp eq i32 %43, 0
  br i1 %.not25, label %tailrecurse, label %.loopexit

.loopexit:                                        ; preds = %41, %23, %27, %22, %6
  %.0 = phi i32 [ -1094995529, %6 ], [ -1094995529, %22 ], [ 0, %27 ], [ -1094995529, %23 ], [ %43, %41 ]
  ret i32 %.0
}